target datalayout = "e-m:e-p270:32:32-p271:32:32-p272:64:64-i64:64-i128:128-f80:128-n8:16:32:64-S128"
target triple = "x86_64-pc-linux-gnu"

%struct._address = type { i32, i32, ptr, ptr }
%struct.profile = type { i16, i8, %struct._address, i32, i32, ptr, ptr, ptr, ptr, ptr, ptr, ptr, i32, ptr, ptr, ptr }
%struct.nodeid_profile_uat_assoc = type { ptr, i8, %union.anon, ptr }
%union.anon = type { %struct._address }

@current_convo_generation = hidden global i32 0, align 4
@epl_profiles_by_nodeid = internal global ptr null, align 8
@epl_profiles_by_address = internal global ptr null, align 8
@nodeid_profile_list_uats = internal global ptr null, align 8
@nnodeid_profile_uat = internal global i32 0, align 4
@pdo_mapping_scope = internal global ptr null, align 8
@.str.1117 = private unnamed_addr constant [12 x i8] c"Loading %s\0A\00", align 1

; Function Attrs: nounwind uwtable
define internal void @clear_address(ptr noundef %0) #0 {
  %2 = alloca ptr, align 8
  store ptr %0, ptr %2, align 8
  %3 = load ptr, ptr %2, align 8
  %4 = getelementptr inbounds %struct._address, ptr %3, i32 0, i32 0
  store i32 0, ptr %4, align 8
  %5 = load ptr, ptr %2, align 8
  %6 = getelementptr inbounds %struct._address, ptr %5, i32 0, i32 1
  store i32 0, ptr %6, align 4
  %7 = load ptr, ptr %2, align 8
  %8 = getelementptr inbounds %struct._address, ptr %7, i32 0, i32 2
  store ptr null, ptr %8, align 8
  %9 = load ptr, ptr %2, align 8
  %10 = getelementptr inbounds %struct._address, ptr %9, i32 0, i32 3
  store ptr null, ptr %10, align 8
  ret void
}

; Function Attrs: nounwind uwtable
define internal void @alloc_address_wmem(ptr noundef %0, ptr noundef %1, i32 noundef %2, i32 noundef %3, ptr noundef %4) #0 {
  %6 = alloca ptr, align 8
  %7 = alloca ptr, align 8
  %8 = alloca i32, align 4
  %9 = alloca i32, align 4
  %10 = alloca ptr, align 8
  store ptr %0, ptr %6, align 8
  store ptr %1, ptr %7, align 8
  store i32 %2, ptr %8, align 4
  store i32 %3, ptr %9, align 4
  store ptr %4, ptr %10, align 8
  br label %11

11:                                               ; preds = %5
  br label %12

12:                                               ; preds = %11
  %13 = load ptr, ptr %7, align 8
  call void @clear_address(ptr noundef %13)
  %14 = load i32, ptr %8, align 4
  %15 = load ptr, ptr %7, align 8
  %16 = getelementptr inbounds %struct._address, ptr %15, i32 0, i32 0
  store i32 %14, ptr %16, align 8
  %17 = load i32, ptr %9, align 4
  %18 = icmp eq i32 %17, 0
  br i1 %18, label %19, label %22

19:                                               ; preds = %12
  br label %20

20:                                               ; preds = %19
  br label %21

21:                                               ; preds = %20
  br label %39

22:                                               ; preds = %12
  br label %23

23:                                               ; preds = %22
  br label %24

24:                                               ; preds = %23
  br label %25

25:                                               ; preds = %24
  br label %26

26:                                               ; preds = %25
  %27 = load ptr, ptr %6, align 8
  %28 = load ptr, ptr %10, align 8
  %29 = load i32, ptr %9, align 4
  %30 = sext i32 %29 to i64
  %31 = call noalias ptr @wmem_memdup(ptr noundef %27, ptr noundef %28, i64 noundef %30)
  %32 = load ptr, ptr %7, align 8
  %33 = getelementptr inbounds %struct._address, ptr %32, i32 0, i32 3
  store ptr %31, ptr %33, align 8
  %34 = load ptr, ptr %7, align 8
  %35 = getelementptr inbounds %struct._address, ptr %34, i32 0, i32 2
  store ptr %31, ptr %35, align 8
  %36 = load i32, ptr %9, align 4
  %37 = load ptr, ptr %7, align 8
  %38 = getelementptr inbounds %struct._address, ptr %37, i32 0, i32 1
  store i32 %36, ptr %38, align 4
  br label %39

39:                                               ; preds = %26, %21
  ret void
}

; Function Attrs: nounwind uwtable
define internal void @copy_address_wmem(ptr noundef %0, ptr noundef %1, ptr noundef %2) #0 {
  %4 = alloca ptr, align 8
  %5 = alloca ptr, align 8
  %6 = alloca ptr, align 8
  store ptr %0, ptr %4, align 8
  store ptr %1, ptr %5, align 8
  store ptr %2, ptr %6, align 8
  %7 = load ptr, ptr %4, align 8
  %8 = load ptr, ptr %5, align 8
  %9 = load ptr, ptr %6, align 8
  %10 = getelementptr inbounds %struct._address, ptr %9, i32 0, i32 0
  %11 = load i32, ptr %10, align 8
  %12 = load ptr, ptr %6, align 8
  %13 = getelementptr inbounds %struct._address, ptr %12, i32 0, i32 1
  %14 = load i32, ptr %13, align 4
  %15 = load ptr, ptr %6, align 8
  %16 = getelementptr inbounds %struct._address, ptr %15, i32 0, i32 2
  %17 = load ptr, ptr %16, align 8
  call void @alloc_address_wmem(ptr noundef %7, ptr noundef %8, i32 noundef %11, i32 noundef %14, ptr noundef %17)
  ret void
}

; Function Attrs: nounwind uwtable
define internal void @nodeid_profile_parse_uat() #0 {
  %1 = alloca i32, align 4
  %2 = alloca ptr, align 8
  %3 = alloca ptr, align 8
  store ptr null, ptr %2, align 8
  %4 = load ptr, ptr @epl_profiles_by_nodeid, align 8
  call void @wmem_map_foreach(ptr noundef %4, ptr noundef @drop_profiles, ptr noundef null)
  %5 = load ptr, ptr @epl_profiles_by_address, align 8
  call void @wmem_map_foreach(ptr noundef %5, ptr noundef @drop_profiles, ptr noundef null)
  %6 = load ptr, ptr @pdo_mapping_scope, align 8
  %7 = icmp ne ptr %6, null
  br i1 %7, label %8, label %12

8:                                                ; preds = %0
  %9 = load ptr, ptr @pdo_mapping_scope, align 8
  call void @wmem_free_all(ptr noundef %9)
  %10 = load i32, ptr @current_convo_generation, align 4
  %11 = add i32 %10, 1
  store i32 %11, ptr @current_convo_generation, align 4
  br label %12

12:                                               ; preds = %8, %0
  store i32 0, ptr %1, align 4
  br label %13

13:                                               ; preds = %109, %12
  %14 = load i32, ptr %1, align 4
  %15 = load i32, ptr @nnodeid_profile_uat, align 4
  %16 = icmp ult i32 %14, %15
  br i1 %16, label %17, label %112

17:                                               ; preds = %13
  %18 = load ptr, ptr @nodeid_profile_list_uats, align 8
  %19 = load i32, ptr %1, align 4
  %20 = zext i32 %19 to i64
  %21 = getelementptr %struct.nodeid_profile_uat_assoc, ptr %18, i64 %20
  store ptr %21, ptr %3, align 8
  %22 = load ptr, ptr %3, align 8
  %23 = getelementptr inbounds %struct.nodeid_profile_uat_assoc, ptr %22, i32 0, i32 1
  %24 = load i8, ptr %23, align 8
  %25 = and i8 %24, 1
  %26 = zext i8 %25 to i32
  %27 = icmp ne i32 %26, 0
  br i1 %27, label %28, label %36

28:                                               ; preds = %17
  %29 = load ptr, ptr @epl_profiles_by_nodeid, align 8
  %30 = load ptr, ptr %3, align 8
  %31 = getelementptr inbounds %struct.nodeid_profile_uat_assoc, ptr %30, i32 0, i32 2
  %32 = load i8, ptr %31, align 8
  %33 = zext i8 %32 to i64
  %34 = inttoptr i64 %33 to ptr
  %35 = call ptr @wmem_map_lookup(ptr noundef %29, ptr noundef %34)
  br label %41

36:                                               ; preds = %17
  %37 = load ptr, ptr @epl_profiles_by_address, align 8
  %38 = load ptr, ptr %3, align 8
  %39 = getelementptr inbounds %struct.nodeid_profile_uat_assoc, ptr %38, i32 0, i32 2
  %40 = call ptr @wmem_map_lookup(ptr noundef %37, ptr noundef %39)
  br label %41

41:                                               ; preds = %36, %28
  %42 = phi ptr [ %35, %28 ], [ %40, %36 ]
  store ptr %42, ptr %2, align 8
  %43 = load ptr, ptr %2, align 8
  %44 = icmp ne ptr %43, null
  br i1 %44, label %51, label %45

45:                                               ; preds = %41
  %46 = call ptr @wmem_epan_scope()
  %47 = load ptr, ptr %3, align 8
  %48 = getelementptr inbounds %struct.nodeid_profile_uat_assoc, ptr %47, i32 0, i32 0
  %49 = load ptr, ptr %48, align 8
  %50 = call ptr @profile_load(ptr noundef %46, ptr noundef %49)
  store ptr %50, ptr %2, align 8
  br label %51

51:                                               ; preds = %45, %41
  %52 = load ptr, ptr %2, align 8
  %53 = icmp ne ptr %52, null
  br i1 %53, label %55, label %54

54:                                               ; preds = %51
  br label %109

55:                                               ; preds = %51
  %56 = load ptr, ptr %3, align 8
  %57 = getelementptr inbounds %struct.nodeid_profile_uat_assoc, ptr %56, i32 0, i32 1
  %58 = load i8, ptr %57, align 8
  %59 = and i8 %58, 1
  %60 = icmp ne i8 %59, 0
  br i1 %60, label %61, label %85

61:                                               ; preds = %55
  %62 = load ptr, ptr %3, align 8
  %63 = getelementptr inbounds %struct.nodeid_profile_uat_assoc, ptr %62, i32 0, i32 2
  %64 = load i8, ptr %63, align 8
  %65 = load ptr, ptr %2, align 8
  %66 = getelementptr inbounds %struct.profile, ptr %65, i32 0, i32 1
  store i8 %64, ptr %66, align 2
  %67 = load ptr, ptr %2, align 8
  %68 = getelementptr inbounds %struct.profile, ptr %67, i32 0, i32 1
  %69 = load i8, ptr %68, align 2
  %70 = zext i8 %69 to i64
  %71 = inttoptr i64 %70 to ptr
  %72 = load ptr, ptr %2, align 8
  %73 = getelementptr inbounds %struct.profile, ptr %72, i32 0, i32 11
  store ptr %71, ptr %73, align 8
  %74 = load ptr, ptr @epl_profiles_by_nodeid, align 8
  %75 = load ptr, ptr %2, align 8
  %76 = getelementptr inbounds %struct.profile, ptr %75, i32 0, i32 1
  %77 = load i8, ptr %76, align 2
  %78 = zext i8 %77 to i64
  %79 = inttoptr i64 %78 to ptr
  %80 = load ptr, ptr %2, align 8
  %81 = call ptr @wmem_map_insert(ptr noundef %74, ptr noundef %79, ptr noundef %80)
  %82 = load ptr, ptr @epl_profiles_by_nodeid, align 8
  %83 = load ptr, ptr %2, align 8
  %84 = getelementptr inbounds %struct.profile, ptr %83, i32 0, i32 8
  store ptr %82, ptr %84, align 8
  br label %105

85:                                               ; preds = %55
  %86 = load ptr, ptr %2, align 8
  %87 = getelementptr inbounds %struct.profile, ptr %86, i32 0, i32 6
  %88 = load ptr, ptr %87, align 8
  %89 = load ptr, ptr %2, align 8
  %90 = getelementptr inbounds %struct.profile, ptr %89, i32 0, i32 2
  %91 = load ptr, ptr %3, align 8
  %92 = getelementptr inbounds %struct.nodeid_profile_uat_assoc, ptr %91, i32 0, i32 2
  call void @copy_address_wmem(ptr noundef %88, ptr noundef %90, ptr noundef %92)
  %93 = load ptr, ptr %2, align 8
  %94 = getelementptr inbounds %struct.profile, ptr %93, i32 0, i32 2
  %95 = load ptr, ptr %2, align 8
  %96 = getelementptr inbounds %struct.profile, ptr %95, i32 0, i32 11
  store ptr %94, ptr %96, align 8
  %97 = load ptr, ptr @epl_profiles_by_address, align 8
  %98 = load ptr, ptr %2, align 8
  %99 = getelementptr inbounds %struct.profile, ptr %98, i32 0, i32 2
  %100 = load ptr, ptr %2, align 8
  %101 = call ptr @wmem_map_insert(ptr noundef %97, ptr noundef %99, ptr noundef %100)
  %102 = load ptr, ptr @epl_profiles_by_address, align 8
  %103 = load ptr, ptr %2, align 8
  %104 = getelementptr inbounds %struct.profile, ptr %103, i32 0, i32 8
  store ptr %102, ptr %104, align 8
  br label %105

105:                                              ; preds = %85, %61
  %106 = load ptr, ptr %2, align 8
  %107 = getelementptr inbounds %struct.profile, ptr %106, i32 0, i32 10
  %108 = load ptr, ptr %107, align 8
  call void (ptr, i32, ptr, ...) @ws_log(ptr noundef null, i32 noundef 3, ptr noundef @.str.1117, ptr noundef %108)
  br label %109

109:                                              ; preds = %105, %54
  %110 = load i32, ptr %1, align 4
  %111 = add i32 %110, 1
  store i32 %111, ptr %1, align 4
  br label %13, !llvm.loop !9

112:                                              ; preds = %13
  ret void
}