; Function Attrs: nounwind uwtable
define internal void @nodeid_profile_parse_uat() #2 {
  %1 = load ptr, ptr @epl_profiles_by_nodeid, align 8
  tail call void @wmem_map_foreach(ptr noundef %1, ptr noundef nonnull @drop_profiles, ptr noundef null) #18
  %2 = load ptr, ptr @epl_profiles_by_address, align 8
  tail call void @wmem_map_foreach(ptr noundef %2, ptr noundef nonnull @drop_profiles, ptr noundef null) #18
  %3 = load ptr, ptr @pdo_mapping_scope, align 8
  %.not = icmp eq ptr %3, null
  br i1 %.not, label %7, label %4

4:                                                ; preds = %0
  tail call void @wmem_free_all(ptr noundef nonnull %3) #18
  %5 = load i32, ptr @current_convo_generation, align 4
  %6 = add i32 %5, 1
  store i32 %6, ptr @current_convo_generation, align 4
  br label %7

7:                                                ; preds = %4, %0
  %8 = load i32, ptr @nnodeid_profile_uat, align 4
  %.not36 = icmp eq i32 %8, 0
  br i1 %.not36, label %._crit_edge, label %.lr.ph

.lr.ph:                                           ; preds = %7, %62
  %indvars.iv = phi i64 [ %indvars.iv.next, %62 ], [ 0, %7 ]
  %9 = load ptr, ptr @nodeid_profile_list_uats, align 8
  %10 = getelementptr %struct.nodeid_profile_uat_assoc, ptr %9, i64 %indvars.iv
  %11 = getelementptr inbounds nuw i8, ptr %10, i64 8
  %12 = load i8, ptr %11, align 8
  %13 = and i8 %12, 1
  %.not28 = icmp eq i8 %13, 0
  %14 = getelementptr inbounds nuw i8, ptr %10, i64 16
  br i1 %.not28, label %21, label %15

15:                                               ; preds = %.lr.ph
  %16 = load ptr, ptr @epl_profiles_by_nodeid, align 8
  %17 = load i8, ptr %14, align 8
  %18 = zext i8 %17 to i64
  %19 = inttoptr i64 %18 to ptr
  %20 = tail call ptr @wmem_map_lookup(ptr noundef %16, ptr noundef %19) #18
  br label %24

21:                                               ; preds = %.lr.ph
  %22 = load ptr, ptr @epl_profiles_by_address, align 8
  %23 = tail call ptr @wmem_map_lookup(ptr noundef %22, ptr noundef nonnull %14) #18
  br label %24

24:                                               ; preds = %21, %15
  %25 = phi ptr [ %20, %15 ], [ %23, %21 ]
  %.not29 = icmp eq ptr %25, null
  br i1 %.not29, label %26, label %.thread

26:                                               ; preds = %24
  %27 = tail call ptr @wmem_epan_scope() #18
  %28 = load ptr, ptr %10, align 8
  %29 = tail call fastcc ptr @profile_load(ptr noundef %27, ptr noundef %28)
  %.not30 = icmp eq ptr %29, null
  br i1 %.not30, label %62, label %.thread

.thread:                                          ; preds = %24, %26
  %.02534 = phi ptr [ %29, %26 ], [ %25, %24 ]
  %30 = load i8, ptr %11, align 8
  %31 = and i8 %30, 1
  %.not31 = icmp eq i8 %31, 0
  br i1 %.not31, label %38, label %32

32:                                               ; preds = %.thread
  %33 = getelementptr inbounds nuw i8, ptr %10, i64 16
  %34 = load i8, ptr %33, align 8
  %35 = getelementptr inbounds nuw i8, ptr %.02534, i64 2
  store i8 %34, ptr %35, align 2
  %36 = zext i8 %34 to i64
  %37 = inttoptr i64 %36 to ptr
  br label %copy_address_wmem.exit

38:                                               ; preds = %.thread
  %39 = getelementptr inbounds nuw i8, ptr %.02534, i64 48
  %40 = load ptr, ptr %39, align 8
  %41 = getelementptr inbounds nuw i8, ptr %.02534, i64 8
  %42 = getelementptr inbounds nuw i8, ptr %10, i64 16
  %43 = load i32, ptr %42, align 8
  %44 = getelementptr inbounds nuw i8, ptr %10, i64 20
  %45 = load i32, ptr %44, align 4
  %46 = getelementptr inbounds nuw i8, ptr %10, i64 24
  %47 = load ptr, ptr %46, align 8
  tail call void @llvm.memset.p0.i64(ptr noundef nonnull align 8 dereferenceable(24) %41, i8 0, i64 24, i1 false)
  store i32 %43, ptr %41, align 8
  %48 = icmp eq i32 %45, 0
  br i1 %48, label %copy_address_wmem.exit, label %49

49:                                               ; preds = %38
  %50 = sext i32 %45 to i64
  %51 = tail call noalias ptr @wmem_memdup(ptr noundef %40, ptr noundef %47, i64 noundef %50) #18
  %52 = getelementptr inbounds nuw i8, ptr %.02534, i64 24
  store ptr %51, ptr %52, align 8
  %53 = getelementptr inbounds nuw i8, ptr %.02534, i64 16
  store ptr %51, ptr %53, align 8
  %54 = getelementptr inbounds nuw i8, ptr %.02534, i64 12
  store i32 %45, ptr %54, align 4
  br label %copy_address_wmem.exit

copy_address_wmem.exit:                           ; preds = %49, %38, %32
  %.sink = phi ptr [ %37, %32 ], [ %41, %38 ], [ %41, %49 ]
  %epl_profiles_by_address.sink40 = phi ptr [ @epl_profiles_by_nodeid, %32 ], [ @epl_profiles_by_address, %38 ], [ @epl_profiles_by_address, %49 ]
  %55 = getelementptr inbounds nuw i8, ptr %.02534, i64 88
  store ptr %.sink, ptr %55, align 8
  %56 = load ptr, ptr %epl_profiles_by_address.sink40, align 8
  %57 = tail call ptr @wmem_map_insert(ptr noundef %56, ptr noundef %.sink, ptr noundef nonnull %.02534) #18
  %58 = load ptr, ptr %epl_profiles_by_address.sink40, align 8
  %59 = getelementptr inbounds nuw i8, ptr %.02534, i64 64
  store ptr %58, ptr %59, align 8
  %60 = getelementptr inbounds nuw i8, ptr %.02534, i64 80
  %61 = load ptr, ptr %60, align 8
  tail call void (ptr, i32, ptr, ...) @ws_log(ptr noundef null, i32 noundef 3, ptr noundef nonnull @.str.1117, ptr noundef %61) #18
  br label %62

62:                                               ; preds = %26, %copy_address_wmem.exit
  %indvars.iv.next = add nuw nsw i64 %indvars.iv, 1
  %63 = load i32, ptr @nnodeid_profile_uat, align 4
  %64 = zext i32 %63 to i64
  %65 = icmp samesign ult i64 %indvars.iv.next, %64
  br i1 %65, label %.lr.ph, label %._crit_edge, !llvm.loop !11

._crit_edge:                                      ; preds = %62, %7
  ret void
}